; ModuleID = '10/1989.c'
source_filename = "10/1989.c"
target datalayout = "e-m:e-p270:32:32-p271:32:32-p272:64:64-i64:64-f80:128-n8:16:32:64-S128"
target triple = "x86_64-pc-linux-gnu"

@.str = private unnamed_addr constant [3 x i8] c"%d\00", align 1
@.str.1 = private unnamed_addr constant [4 x i8] c"%d\0A\00", align 1

; Function Attrs: noinline nounwind uwtable
define dso_local void @main() #0 {
  %1 = alloca [27 x i32], align 16
  %2 = alloca [27 x i32], align 16
  %3 = alloca i32, align 4
  %4 = alloca i32, align 4
  %5 = alloca i32, align 4
  %6 = alloca i32, align 4
  %7 = call i32 (i8*, ...) @__isoc99_scanf(i8* getelementptr inbounds ([3 x i8], [3 x i8]* @.str, i64 0, i64 0), i32* %6)
  store i32 1, i32* %4, align 4
  br label %8

8:                                                ; preds = %17, %0
  %9 = load i32, i32* %4, align 4
  %10 = load i32, i32* %6, align 4
  %11 = icmp sle i32 %9, %10
  br i1 %11, label %12, label %20

12:                                               ; preds = %8
  %13 = load i32, i32* %4, align 4
  %14 = sext i32 %13 to i64
  %15 = getelementptr inbounds [27 x i32], [27 x i32]* %1, i64 0, i64 %14
  %16 = call i32 (i8*, ...) @__isoc99_scanf(i8* getelementptr inbounds ([3 x i8], [3 x i8]* @.str, i64 0, i64 0), i32* %15)
  br label %17

17:                                               ; preds = %12
  %18 = load i32, i32* %4, align 4
  %19 = add nsw i32 %18, 1
  store i32 %19, i32* %4, align 4
  br label %8

20:                                               ; preds = %8
  store i32 1, i32* %4, align 4
  br label %21

21:                                               ; preds = %30, %20
  %22 = load i32, i32* %4, align 4
  %23 = load i32, i32* %6, align 4
  %24 = add nsw i32 %23, 1
  %25 = icmp sle i32 %22, %24
  br i1 %25, label %26, label %33

26:                                               ; preds = %21
  %27 = load i32, i32* %4, align 4
  %28 = sext i32 %27 to i64
  %29 = getelementptr inbounds [27 x i32], [27 x i32]* %2, i64 0, i64 %28
  store i32 0, i32* %29, align 4
  br label %30

30:                                               ; preds = %26
  %31 = load i32, i32* %4, align 4
  %32 = add nsw i32 %31, 1
  store i32 %32, i32* %4, align 4
  br label %21

33:                                               ; preds = %21
  %34 = load i32, i32* %6, align 4
  store i32 %34, i32* %4, align 4
  br label %35

35:                                               ; preds = %80, %33
  %36 = load i32, i32* %4, align 4
  %37 = icmp sge i32 %36, 1
  br i1 %37, label %38, label %83

38:                                               ; preds = %35
  %39 = load i32, i32* %4, align 4
  %40 = add nsw i32 %39, 1
  store i32 %40, i32* %5, align 4
  br label %41

41:                                               ; preds = %76, %38
  %42 = load i32, i32* %5, align 4
  %43 = load i32, i32* %6, align 4
  %44 = add nsw i32 %43, 1
  %45 = icmp sle i32 %42, %44
  br i1 %45, label %46, label %79

46:                                               ; preds = %41
  %47 = load i32, i32* %4, align 4
  %48 = sext i32 %47 to i64
  %49 = getelementptr inbounds [27 x i32], [27 x i32]* %1, i64 0, i64 %48
  %50 = load i32, i32* %49, align 4
  %51 = load i32, i32* %5, align 4
  %52 = sext i32 %51 to i64
  %53 = getelementptr inbounds [27 x i32], [27 x i32]* %1, i64 0, i64 %52
  %54 = load i32, i32* %53, align 4
  %55 = icmp sge i32 %50, %54
  br i1 %55, label %56, label %75

56:                                               ; preds = %46
  %57 = load i32, i32* %5, align 4
  %58 = sext i32 %57 to i64
  %59 = getelementptr inbounds [27 x i32], [27 x i32]* %2, i64 0, i64 %58
  %60 = load i32, i32* %59, align 4
  %61 = load i32, i32* %4, align 4
  %62 = sext i32 %61 to i64
  %63 = getelementptr inbounds [27 x i32], [27 x i32]* %2, i64 0, i64 %62
  %64 = load i32, i32* %63, align 4
  %65 = icmp sge i32 %60, %64
  br i1 %65, label %66, label %75

66:                                               ; preds = %56
  %67 = load i32, i32* %5, align 4
  %68 = sext i32 %67 to i64
  %69 = getelementptr inbounds [27 x i32], [27 x i32]* %2, i64 0, i64 %68
  %70 = load i32, i32* %69, align 4
  %71 = add nsw i32 %70, 1
  %72 = load i32, i32* %4, align 4
  %73 = sext i32 %72 to i64
  %74 = getelementptr inbounds [27 x i32], [27 x i32]* %2, i64 0, i64 %73
  store i32 %71, i32* %74, align 4
  br label %75

75:                                               ; preds = %66, %56, %46
  br label %76

76:                                               ; preds = %75
  %77 = load i32, i32* %5, align 4
  %78 = add nsw i32 %77, 1
  store i32 %78, i32* %5, align 4
  br label %41

79:                                               ; preds = %41
  br label %80

80:                                               ; preds = %79
  %81 = load i32, i32* %4, align 4
  %82 = add nsw i32 %81, -1
  store i32 %82, i32* %4, align 4
  br label %35

83:                                               ; preds = %35
  store i32 0, i32* %3, align 4
  store i32 1, i32* %4, align 4
  br label %84

84:                                               ; preds = %101, %83
  %85 = load i32, i32* %4, align 4
  %86 = load i32, i32* %6, align 4
  %87 = icmp sle i32 %85, %86
  br i1 %87, label %88, label %104

88:                                               ; preds = %84
  %89 = load i32, i32* %4, align 4
  %90 = sext i32 %89 to i64
  %91 = getelementptr inbounds [27 x i32], [27 x i32]* %2, i64 0, i64 %90
  %92 = load i32, i32* %91, align 4
  %93 = load i32, i32* %3, align 4
  %94 = icmp sgt i32 %92, %93
  br i1 %94, label %95, label %100

95:                                               ; preds = %88
  %96 = load i32, i32* %4, align 4
  %97 = sext i32 %96 to i64
  %98 = getelementptr inbounds [27 x i32], [27 x i32]* %2, i64 0, i64 %97
  %99 = load i32, i32* %98, align 4
  store i32 %99, i32* %3, align 4
  br label %100

100:                                              ; preds = %95, %88
  br label %101

101:                                              ; preds = %100
  %102 = load i32, i32* %4, align 4
  %103 = add nsw i32 %102, 1
  store i32 %103, i32* %4, align 4
  br label %84

104:                                              ; preds = %84
  %105 = load i32, i32* %6, align 4
  %106 = icmp eq i32 %105, 25
  br i1 %106, label %107, label %111

107:                                              ; preds = %104
  %108 = load i32, i32* %3, align 4
  %109 = add nsw i32 %108, 1
  %110 = call i32 (i8*, ...) @printf(i8* getelementptr inbounds ([4 x i8], [4 x i8]* @.str.1, i64 0, i64 0), i32 %109)
  br label %114

111:                                              ; preds = %104
  %112 = load i32, i32* %3, align 4
  %113 = call i32 (i8*, ...) @printf(i8* getelementptr inbounds ([4 x i8], [4 x i8]* @.str.1, i64 0, i64 0), i32 %112)
  br label %114

114:                                              ; preds = %111, %107
  ret void
}

declare dso_local i32 @__isoc99_scanf(i8*, ...) #1

declare dso_local i32 @printf(i8*, ...) #1


!llvm.module.flags = !{!0}
!llvm.ident = !{!1}

!0 = !{i32 1, !"wchar_size", i32 4}
!1 = !{!"clang version 10.0.0-4ubuntu1 "}
